target datalayout = "e-m:e-p270:32:32-p271:32:32-p272:64:64-i64:64-i128:128-f80:128-n8:16:32:64-S128"
target triple = "x86_64-pc-linux-gnu"

%struct.slurmctld_resv = type { i16, ptr, i32, ptr, ptr, i32, ptr, ptr, i32, ptr, i32, ptr, i32, i64, i64, ptr, i64, ptr, ptr, i32, i32, ptr, ptr, i32, ptr, ptr, i32, ptr, ptr, ptr, i32, i32, i64, i64, i64, i64, ptr, ptr, ptr, i32, ptr }
%struct.resv_desc_msg = type { ptr, ptr, ptr, i32, i32, i64, ptr, i64, ptr, ptr, ptr, i32, ptr, i32, ptr, ptr, i32, i64, i64, ptr, ptr }

@resv_list = dso_local global ptr null, align 8
@.str.113 = private unnamed_addr constant [2 x i8] c",\00", align 1

; Function Attrs: nounwind uwtable
define internal ptr @_license_validate2(ptr noundef %0, ptr noundef %1) #0 {
  %3 = alloca ptr, align 8
  %4 = alloca ptr, align 8
  %5 = alloca ptr, align 8
  %6 = alloca ptr, align 8
  %7 = alloca ptr, align 8
  %8 = alloca ptr, align 8
  %9 = alloca ptr, align 8
  %10 = alloca ptr, align 8
  %11 = alloca i32, align 4
  store ptr %0, ptr %4, align 8
  store ptr %1, ptr %5, align 8
  call void @llvm.lifetime.start.p0(i64 8, ptr %6) #10
  store ptr null, ptr %6, align 8
  call void @llvm.lifetime.start.p0(i64 8, ptr %7) #10
  store ptr null, ptr %7, align 8
  call void @llvm.lifetime.start.p0(i64 8, ptr %8) #10
  call void @llvm.lifetime.start.p0(i64 8, ptr %9) #10
  call void @llvm.lifetime.start.p0(i64 8, ptr %10) #10
  %12 = load ptr, ptr %4, align 8
  %13 = getelementptr inbounds nuw %struct.resv_desc_msg, ptr %12, i32 0, i32 10
  %14 = load ptr, ptr %13, align 8
  %15 = load ptr, ptr %5, align 8
  %16 = call ptr @license_validate(ptr noundef %14, i1 noundef zeroext true, i1 noundef zeroext true, ptr noundef null, ptr noundef %15)
  store ptr %16, ptr %6, align 8
  %17 = load ptr, ptr %4, align 8
  %18 = getelementptr inbounds nuw %struct.resv_desc_msg, ptr %17, i32 0, i32 10
  %19 = load ptr, ptr %18, align 8
  %20 = icmp eq ptr %19, null
  br i1 %20, label %21, label %23

21:                                               ; preds = %2
  %22 = load ptr, ptr %6, align 8
  store ptr %22, ptr %3, align 8
  store i32 1, ptr %11, align 4
  br label %89

23:                                               ; preds = %2
  %24 = load ptr, ptr %4, align 8
  %25 = getelementptr inbounds nuw %struct.resv_desc_msg, ptr %24, i32 0, i32 10
  %26 = load ptr, ptr %25, align 8
  %27 = call ptr @xstrdup(ptr noundef %26)
  store ptr %27, ptr %10, align 8
  %28 = load ptr, ptr @resv_list, align 8
  %29 = call ptr @list_iterator_create(ptr noundef %28)
  store ptr %29, ptr %8, align 8
  br label %30

30:                                               ; preds = %71, %70, %55, %23
  %31 = load ptr, ptr %8, align 8
  %32 = call ptr @list_next(ptr noundef %31)
  store ptr %32, ptr %9, align 8
  %33 = icmp ne ptr %32, null
  br i1 %33, label %34, label %75

34:                                               ; preds = %30
  %35 = load ptr, ptr %9, align 8
  %36 = getelementptr inbounds nuw %struct.slurmctld_resv, ptr %35, i32 0, i32 22
  %37 = load ptr, ptr %36, align 8
  %38 = icmp eq ptr %37, null
  br i1 %38, label %55, label %39

39:                                               ; preds = %34
  %40 = load ptr, ptr %9, align 8
  %41 = getelementptr inbounds nuw %struct.slurmctld_resv, ptr %40, i32 0, i32 13
  %42 = load i64, ptr %41, align 8
  %43 = load ptr, ptr %4, align 8
  %44 = getelementptr inbounds nuw %struct.resv_desc_msg, ptr %43, i32 0, i32 17
  %45 = load i64, ptr %44, align 8
  %46 = icmp sle i64 %42, %45
  br i1 %46, label %55, label %47

47:                                               ; preds = %39
  %48 = load ptr, ptr %9, align 8
  %49 = getelementptr inbounds nuw %struct.slurmctld_resv, ptr %48, i32 0, i32 32
  %50 = load i64, ptr %49, align 8
  %51 = load ptr, ptr %4, align 8
  %52 = getelementptr inbounds nuw %struct.resv_desc_msg, ptr %51, i32 0, i32 5
  %53 = load i64, ptr %52, align 8
  %54 = icmp sge i64 %50, %53
  br i1 %54, label %55, label %56

55:                                               ; preds = %47, %39, %34
  br label %30, !llvm.loop !18

56:                                               ; preds = %47
  %57 = load ptr, ptr %4, align 8
  %58 = getelementptr inbounds nuw %struct.resv_desc_msg, ptr %57, i32 0, i32 12
  %59 = load ptr, ptr %58, align 8
  %60 = icmp ne ptr %59, null
  br i1 %60, label %61, label %71

61:                                               ; preds = %56
  %62 = load ptr, ptr %4, align 8
  %63 = getelementptr inbounds nuw %struct.resv_desc_msg, ptr %62, i32 0, i32 12
  %64 = load ptr, ptr %63, align 8
  %65 = load ptr, ptr %9, align 8
  %66 = getelementptr inbounds nuw %struct.slurmctld_resv, ptr %65, i32 0, i32 24
  %67 = load ptr, ptr %66, align 8
  %68 = call i32 @xstrcmp(ptr noundef %64, ptr noundef %67)
  %69 = icmp ne i32 %68, 0
  br i1 %69, label %71, label %70

70:                                               ; preds = %61
  br label %30, !llvm.loop !18

71:                                               ; preds = %61, %56
  call void @_xstrcat(ptr noundef %10, ptr noundef @.str.113)
  %72 = load ptr, ptr %9, align 8
  %73 = getelementptr inbounds nuw %struct.slurmctld_resv, ptr %72, i32 0, i32 22
  %74 = load ptr, ptr %73, align 8
  call void @_xstrcat(ptr noundef %10, ptr noundef %74)
  br label %30, !llvm.loop !18

75:                                               ; preds = %30
  %76 = load ptr, ptr %8, align 8
  call void @list_iterator_destroy(ptr noundef %76)
  %77 = load ptr, ptr %10, align 8
  %78 = load ptr, ptr %5, align 8
  %79 = call ptr @license_validate(ptr noundef %77, i1 noundef zeroext true, i1 noundef zeroext true, ptr noundef null, ptr noundef %78)
  store ptr %79, ptr %7, align 8
  call void @slurm_xfree(ptr noundef %10)
  br label %80

80:                                               ; preds = %75
  %81 = load ptr, ptr %7, align 8
  %82 = icmp ne ptr %81, null
  br i1 %82, label %83, label %85

83:                                               ; preds = %80
  %84 = load ptr, ptr %7, align 8
  call void @list_destroy(ptr noundef %84)
  br label %85

85:                                               ; preds = %83, %80
  store ptr null, ptr %7, align 8
  br label %86

86:                                               ; preds = %85
  br label %87

87:                                               ; preds = %86
  %88 = load ptr, ptr %6, align 8
  store ptr %88, ptr %3, align 8
  store i32 1, ptr %11, align 4
  br label %89

89:                                               ; preds = %87, %21
  call void @llvm.lifetime.end.p0(i64 8, ptr %10) #10
  call void @llvm.lifetime.end.p0(i64 8, ptr %9) #10
  call void @llvm.lifetime.end.p0(i64 8, ptr %8) #10
  call void @llvm.lifetime.end.p0(i64 8, ptr %7) #10
  call void @llvm.lifetime.end.p0(i64 8, ptr %6) #10
  %90 = load ptr, ptr %3, align 8
  ret ptr %90
}