; Function Attrs: nounwind uwtable
define internal fastcc ptr @_license_validate2(ptr noundef readonly captures(none) %0, ptr noundef nonnull %1) unnamed_addr #0 {
  %3 = alloca ptr, align 8
  call void @llvm.lifetime.start.p0(i64 8, ptr nonnull %3) #19
  %4 = getelementptr inbounds nuw i8, ptr %0, i64 72
  %5 = load ptr, ptr %4, align 8
  %6 = tail call ptr @license_validate(ptr noundef %5, i1 noundef zeroext true, i1 noundef zeroext true, ptr noundef null, ptr noundef nonnull %1) #19
  %7 = load ptr, ptr %4, align 8
  %8 = icmp eq ptr %7, null
  br i1 %8, label %42, label %9

9:                                                ; preds = %2
  %10 = tail call ptr @xstrdup(ptr noundef nonnull %7) #19
  store ptr %10, ptr %3, align 8
  %11 = load ptr, ptr @resv_list, align 8
  %12 = tail call ptr @list_iterator_create(ptr noundef %11) #19
  %13 = tail call ptr @list_next(ptr noundef %12) #19
  %.not29 = icmp eq ptr %13, null
  br i1 %.not29, label %._crit_edge, label %.lr.ph

.lr.ph:                                           ; preds = %9
  %14 = getelementptr inbounds nuw i8, ptr %0, i64 128
  %15 = getelementptr inbounds nuw i8, ptr %0, i64 32
  %16 = getelementptr inbounds nuw i8, ptr %0, i64 88
  br label %17

17:                                               ; preds = %.lr.ph, %.backedge
  %18 = phi ptr [ %13, %.lr.ph ], [ %30, %.backedge ]
  %19 = getelementptr inbounds nuw i8, ptr %18, i64 168
  %20 = load ptr, ptr %19, align 8
  %21 = icmp eq ptr %20, null
  br i1 %21, label %.backedge, label %22

22:                                               ; preds = %17
  %23 = getelementptr inbounds nuw i8, ptr %18, i64 104
  %24 = load i64, ptr %23, align 8
  %25 = load i64, ptr %14, align 8
  %.not25 = icmp sgt i64 %24, %25
  br i1 %.not25, label %26, label %.backedge

26:                                               ; preds = %22
  %27 = getelementptr inbounds nuw i8, ptr %18, i64 240
  %28 = load i64, ptr %27, align 8
  %29 = load i64, ptr %15, align 8
  %.not26 = icmp slt i64 %28, %29
  br i1 %.not26, label %31, label %.backedge

.backedge:                                        ; preds = %17, %22, %26, %37, %33
  %30 = call ptr @list_next(ptr noundef %12) #19
  %.not = icmp eq ptr %30, null
  br i1 %.not, label %._crit_edge, label %17, !llvm.loop !18

31:                                               ; preds = %26
  %32 = load ptr, ptr %16, align 8
  %.not27 = icmp eq ptr %32, null
  br i1 %.not27, label %37, label %33

33:                                               ; preds = %31
  %34 = getelementptr inbounds nuw i8, ptr %18, i64 184
  %35 = load ptr, ptr %34, align 8
  %36 = call i32 @xstrcmp(ptr noundef nonnull %32, ptr noundef %35) #19
  %.not28 = icmp eq i32 %36, 0
  br i1 %.not28, label %.backedge, label %37

37:                                               ; preds = %33, %31
  call void @_xstrcat(ptr noundef nonnull %3, ptr noundef nonnull @.str.113) #19
  %38 = load ptr, ptr %19, align 8
  call void @_xstrcat(ptr noundef nonnull %3, ptr noundef %38) #19
  br label %.backedge

._crit_edge:                                      ; preds = %.backedge, %9
  call void @list_iterator_destroy(ptr noundef %12) #19
  %39 = load ptr, ptr %3, align 8
  %40 = call ptr @license_validate(ptr noundef %39, i1 noundef zeroext true, i1 noundef zeroext true, ptr noundef null, ptr noundef nonnull %1) #19
  call void @slurm_xfree(ptr noundef nonnull %3) #19
  %.not24 = icmp eq ptr %40, null
  br i1 %.not24, label %42, label %41

41:                                               ; preds = %._crit_edge
  call void @list_destroy(ptr noundef nonnull %40) #19
  br label %42

42:                                               ; preds = %._crit_edge, %41, %2
  call void @llvm.lifetime.end.p0(i64 8, ptr nonnull %3) #19
  ret ptr %6
}